(lp0
(dp1
Vdomain
p2
V.instagram.com
p3
sVname
p4
Vurlgen
p5
sVvalue
p6
V"{\u005c"time\u005c": 1526671577\u005c054 \u005c"2600:1700:dbd0:1290:1932:429b:bee6:c8a7\u005c": 7018}:1fJl19:Fs3xcKBmJbrE03XBeZuqGXGV0I0"
p7
sVpath
p8
V/
p9
sVhttpOnly
p10
I00
sVsecure
p11
I00
sa(dp12
Vdomain
p13
V.instagram.com
p14
sVsecure
p15
I01
sVvalue
p16
VIGSCd773cc6a78cf2cd070e293fcf2569702d7f8a8a3bed70df6d7322cbf4118c862%3AVDoHfhDusxPjE3zR1JWKp24LOaYkWt52%3A%7B%22_auth_user_id%22%3A6984278790%2C%22_auth_user_backend%22%3A%22accounts.backends.CaseInsensitiveModelBackend%22%2C%22_auth_user_hash%22%3A%22%22%2C%22_platform%22%3A4%2C%22_token_ver%22%3A2%2C%22_token%22%3A%226984278790%3A3nt5OOt6iDRye45emsSPESOloDMr0N8V%3A884f2ff936700a1e9718694b27a554c3a38eecf04f2eeeb1cc7c40a740f90596%22%2C%22last_refreshed%22%3A1526671577.2734048367%7D
p17
sVexpiry
p18
F1534447577.547299
sVpath
p19
g9
sVhttpOnly
p20
I01
sVname
p21
Vsessionid
p22
sa(dp23
Vdomain
p24
V.instagram.com
p25
sVname
p26
Vrur
p27
sVvalue
p28
VFTW
p29
sVpath
p30
g9
sVhttpOnly
p31
I00
sVsecure
p32
I00
sa(dp33
Vdomain
p34
V.instagram.com
p35
sVname
p36
Vmcd
p37
sVvalue
p38
V3
p39
sVpath
p40
g9
sVhttpOnly
p41
I00
sVsecure
p42
I00
sa(dp43
Vdomain
p44
V.instagram.com
p45
sVsecure
p46
I00
sVvalue
p47
V6984278790
p48
sVexpiry
p49
F1534447579.91718
sVpath
p50
g9
sVhttpOnly
p51
I00
sVname
p52
Vds_user_id
p53
sa(dp54
Vdomain
p55
V.instagram.com
p56
sVname
p57
Vmid
p58
sVvalue
p59
VWv8o1gAEAAFxH78WcSCCF_rscLxw
p60
sVpath
p61
g9
sVhttpOnly
p62
I00
sVsecure
p63
I00
sa(dp64
Vdomain
p65
V.instagram.com
p66
sVsecure
p67
I00
sVvalue
p68
V14747
p69
sVexpiry
p70
F1527276379.917085
sVpath
p71
g9
sVhttpOnly
p72
I00
sVname
p73
Vshbid
p74
sa(dp75
Vdomain
p76
V.instagram.com
p77
sVsecure
p78
I00
sVvalue
p79
V1526671579.8403296
p80
sVexpiry
p81
F1527276379.917138
sVpath
p82
g9
sVhttpOnly
p83
I00
sVname
p84
Vshbts
p85
sa(dp86
Vdomain
p87
V.instagram.com
p88
sVsecure
p89
I01
sVvalue
p90
VoGOdIiQiDrb8OtteQ4rhf9UghGAge5lh
p91
sVexpiry
p92
F1558121179.916981
sVpath
p93
g9
sVhttpOnly
p94
I00
sVname
p95
Vcsrftoken
p96
sa.